; ModuleID = 'source-C-CXX/52/1373.cpp'
source_filename = "source-C-CXX/52/1373.cpp"
target datalayout = "e-m:e-p270:32:32-p271:32:32-p272:64:64-i64:64-f80:128-n8:16:32:64-S128"
target triple = "x86_64-pc-linux-gnu"

%"class.std::ios_base::Init" = type { i8 }
%"class.std::basic_istream" = type { i32 (...)**, i64, %"class.std::basic_ios" }
%"class.std::basic_ios" = type { %"class.std::ios_base", %"class.std::basic_ostream"*, i8, i8, %"class.std::basic_streambuf"*, %"class.std::ctype"*, %"class.std::num_put"*, %"class.std::num_get"* }
%"class.std::ios_base" = type { i32 (...)**, i64, i64, i32, i32, i32, %"struct.std::ios_base::_Callback_list"*, %"struct.std::ios_base::_Words", [8 x %"struct.std::ios_base::_Words"], i32, %"struct.std::ios_base::_Words"*, %"class.std::locale" }
%"struct.std::ios_base::_Callback_list" = type { %"struct.std::ios_base::_Callback_list"*, void (i32, %"class.std::ios_base"*, i32)*, i32, i32 }
%"struct.std::ios_base::_Words" = type { i8*, i64 }
%"class.std::locale" = type { %"class.std::locale::_Impl"* }
%"class.std::locale::_Impl" = type { i32, %"class.std::locale::facet"**, i64, %"class.std::locale::facet"**, i8** }
%"class.std::locale::facet" = type <{ i32 (...)**, i32, [4 x i8] }>
%"class.std::basic_ostream" = type { i32 (...)**, %"class.std::basic_ios" }
%"class.std::basic_streambuf" = type { i32 (...)**, i8*, i8*, i8*, i8*, i8*, i8*, %"class.std::locale" }
%"class.std::ctype" = type <{ %"class.std::locale::facet.base", [4 x i8], %struct.__locale_struct*, i8, [7 x i8], i32*, i32*, i16*, i8, [256 x i8], [256 x i8], i8, [6 x i8] }>
%"class.std::locale::facet.base" = type <{ i32 (...)**, i32 }>
%struct.__locale_struct = type { [13 x %struct.__locale_data*], i16*, i32*, i32*, [13 x i8*] }
%struct.__locale_data = type opaque
%"class.std::num_put" = type { %"class.std::locale::facet.base", [4 x i8] }
%"class.std::num_get" = type { %"class.std::locale::facet.base", [4 x i8] }

@_ZStL8__ioinit = internal global %"class.std::ios_base::Init" zeroinitializer, align 1
@__dso_handle = external hidden global i8
@_ZSt3cin = external global %"class.std::basic_istream", align 8
@_ZSt4cout = external global %"class.std::basic_ostream", align 8
@.str = private unnamed_addr constant [2 x i8] c",\00", align 1
@llvm.global_ctors = appending global [1 x { i32, void ()*, i8* }] [{ i32, void ()*, i8* } { i32 65535, void ()* @_GLOBAL__sub_I_1373.cpp, i8* null }]

declare void @_ZNSt8ios_base4InitC1Ev(%"class.std::ios_base::Init"* nonnull align 1 dereferenceable(1)) unnamed_addr #0

; Function Attrs: nounwind
declare void @_ZNSt8ios_base4InitD1Ev(%"class.std::ios_base::Init"* nonnull align 1 dereferenceable(1)) unnamed_addr #1

; Function Attrs: nofree nounwind
declare i32 @__cxa_atexit(void (i8*)*, i8*, i8*) local_unnamed_addr #2

; Function Attrs: mustprogress norecurse sspstrong uwtable
define dso_local i32 @main() local_unnamed_addr #3 {
  %1 = alloca [300 x i32], align 16
  %2 = alloca i32, align 4
  %3 = bitcast [300 x i32]* %1 to i8*
  call void @llvm.lifetime.start.p0i8(i64 1200, i8* nonnull %3) #7
  call void @llvm.memset.p0i8.i64(i8* noundef nonnull align 16 dereferenceable(1200) %3, i8 0, i64 1200, i1 false)
  %4 = bitcast i32* %2 to i8*
  call void @llvm.lifetime.start.p0i8(i64 4, i8* nonnull %4) #7
  store i32 0, i32* %2, align 4, !tbaa !5
  %5 = call nonnull align 8 dereferenceable(16) %"class.std::basic_istream"* @_ZNSirsERi(%"class.std::basic_istream"* nonnull align 8 dereferenceable(16) @_ZSt3cin, i32* nonnull align 4 dereferenceable(4) %2)
  %6 = load i32, i32* %2, align 4, !tbaa !5
  %7 = icmp sgt i32 %6, 0
  br i1 %7, label %10, label %146

8:                                                ; preds = %10
  %9 = icmp sgt i32 %15, 0
  br i1 %9, label %26, label %146

10:                                               ; preds = %0, %10
  %11 = phi i64 [ %14, %10 ], [ 0, %0 ]
  %12 = getelementptr inbounds [300 x i32], [300 x i32]* %1, i64 0, i64 %11
  %13 = call nonnull align 8 dereferenceable(16) %"class.std::basic_istream"* @_ZNSirsERi(%"class.std::basic_istream"* nonnull align 8 dereferenceable(16) @_ZSt3cin, i32* nonnull align 4 dereferenceable(4) %12)
  %14 = add nuw nsw i64 %11, 1
  %15 = load i32, i32* %2, align 4, !tbaa !5
  %16 = sext i32 %15 to i64
  %17 = icmp slt i64 %14, %16
  br i1 %17, label %10, label %8, !llvm.loop !9

18:                                               ; preds = %125
  %19 = sext i32 %126 to i64
  br label %20

20:                                               ; preds = %18, %26
  %21 = phi i64 [ %19, %18 ], [ %32, %26 ]
  %22 = phi i32 [ %126, %18 ], [ %27, %26 ]
  %23 = icmp slt i64 %31, %21
  br i1 %23, label %26, label %24, !llvm.loop !11

24:                                               ; preds = %20
  %25 = icmp sgt i32 %22, 0
  br i1 %25, label %130, label %146

26:                                               ; preds = %8, %20
  %27 = phi i32 [ %22, %20 ], [ %15, %8 ]
  %28 = phi i64 [ %31, %20 ], [ 0, %8 ]
  %29 = getelementptr inbounds [300 x i32], [300 x i32]* %1, i64 0, i64 %28
  %30 = load i32, i32* %29, align 4, !tbaa !5
  %31 = add nuw nsw i64 %28, 1
  %32 = sext i32 %27 to i64
  %33 = icmp slt i64 %31, %32
  br i1 %33, label %34, label %20

34:                                               ; preds = %26
  %35 = trunc i64 %31 to i32
  br label %36

36:                                               ; preds = %34, %125
  %37 = phi i32 [ %126, %125 ], [ %27, %34 ]
  %38 = phi i32 [ %127, %125 ], [ %27, %34 ]
  %39 = phi i32 [ %128, %125 ], [ %35, %34 ]
  %40 = sext i32 %39 to i64
  %41 = getelementptr inbounds [300 x i32], [300 x i32]* %1, i64 0, i64 %40
  %42 = load i32, i32* %41, align 4, !tbaa !5
  %43 = icmp eq i32 %42, %30
  br i1 %43, label %44, label %123

44:                                               ; preds = %36
  %45 = add nsw i32 %38, -2
  %46 = icmp sgt i32 %39, %45
  %47 = add i32 %38, -1
  br i1 %46, label %122, label %48

48:                                               ; preds = %44
  %49 = sext i32 %47 to i64
  %50 = add i32 %38, -1
  %51 = sext i32 %50 to i64
  %52 = sub nsw i64 %51, %40
  %53 = icmp ult i64 %52, 8
  br i1 %53, label %113, label %54

54:                                               ; preds = %48
  %55 = and i64 %52, -8
  %56 = add nsw i64 %55, %40
  %57 = add nsw i64 %55, -8
  %58 = lshr exact i64 %57, 3
  %59 = add nuw nsw i64 %58, 1
  %60 = and i64 %59, 1
  %61 = icmp eq i64 %57, 0
  br i1 %61, label %95, label %62

62:                                               ; preds = %54
  %63 = and i64 %59, 4611686018427387902
  br label %64

64:                                               ; preds = %64, %62
  %65 = phi i64 [ 0, %62 ], [ %92, %64 ]
  %66 = phi i64 [ %63, %62 ], [ %93, %64 ]
  %67 = add i64 %65, %40
  %68 = add nsw i64 %67, 1
  %69 = getelementptr inbounds [300 x i32], [300 x i32]* %1, i64 0, i64 %68
  %70 = bitcast i32* %69 to <4 x i32>*
  %71 = load <4 x i32>, <4 x i32>* %70, align 4, !tbaa !5
  %72 = getelementptr inbounds i32, i32* %69, i64 4
  %73 = bitcast i32* %72 to <4 x i32>*
  %74 = load <4 x i32>, <4 x i32>* %73, align 4, !tbaa !5
  %75 = getelementptr inbounds [300 x i32], [300 x i32]* %1, i64 0, i64 %67
  %76 = bitcast i32* %75 to <4 x i32>*
  store <4 x i32> %71, <4 x i32>* %76, align 4, !tbaa !5
  %77 = getelementptr inbounds i32, i32* %75, i64 4
  %78 = bitcast i32* %77 to <4 x i32>*
  store <4 x i32> %74, <4 x i32>* %78, align 4, !tbaa !5
  %79 = or i64 %65, 8
  %80 = add i64 %79, %40
  %81 = add nsw i64 %80, 1
  %82 = getelementptr inbounds [300 x i32], [300 x i32]* %1, i64 0, i64 %81
  %83 = bitcast i32* %82 to <4 x i32>*
  %84 = load <4 x i32>, <4 x i32>* %83, align 4, !tbaa !5
  %85 = getelementptr inbounds i32, i32* %82, i64 4
  %86 = bitcast i32* %85 to <4 x i32>*
  %87 = load <4 x i32>, <4 x i32>* %86, align 4, !tbaa !5
  %88 = getelementptr inbounds [300 x i32], [300 x i32]* %1, i64 0, i64 %80
  %89 = bitcast i32* %88 to <4 x i32>*
  store <4 x i32> %84, <4 x i32>* %89, align 4, !tbaa !5
  %90 = getelementptr inbounds i32, i32* %88, i64 4
  %91 = bitcast i32* %90 to <4 x i32>*
  store <4 x i32> %87, <4 x i32>* %91, align 4, !tbaa !5
  %92 = add nuw i64 %65, 16
  %93 = add i64 %66, -2
  %94 = icmp eq i64 %93, 0
  br i1 %94, label %95, label %64, !llvm.loop !12

95:                                               ; preds = %64, %54
  %96 = phi i64 [ 0, %54 ], [ %92, %64 ]
  %97 = icmp eq i64 %60, 0
  br i1 %97, label %111, label %98

98:                                               ; preds = %95
  %99 = add i64 %96, %40
  %100 = add nsw i64 %99, 1
  %101 = getelementptr inbounds [300 x i32], [300 x i32]* %1, i64 0, i64 %100
  %102 = bitcast i32* %101 to <4 x i32>*
  %103 = load <4 x i32>, <4 x i32>* %102, align 4, !tbaa !5
  %104 = getelementptr inbounds i32, i32* %101, i64 4
  %105 = bitcast i32* %104 to <4 x i32>*
  %106 = load <4 x i32>, <4 x i32>* %105, align 4, !tbaa !5
  %107 = getelementptr inbounds [300 x i32], [300 x i32]* %1, i64 0, i64 %99
  %108 = bitcast i32* %107 to <4 x i32>*
  store <4 x i32> %103, <4 x i32>* %108, align 4, !tbaa !5
  %109 = getelementptr inbounds i32, i32* %107, i64 4
  %110 = bitcast i32* %109 to <4 x i32>*
  store <4 x i32> %106, <4 x i32>* %110, align 4, !tbaa !5
  br label %111

111:                                              ; preds = %95, %98
  %112 = icmp eq i64 %52, %55
  br i1 %112, label %122, label %113

113:                                              ; preds = %48, %111
  %114 = phi i64 [ %40, %48 ], [ %56, %111 ]
  br label %115

115:                                              ; preds = %113, %115
  %116 = phi i64 [ %117, %115 ], [ %114, %113 ]
  %117 = add nsw i64 %116, 1
  %118 = getelementptr inbounds [300 x i32], [300 x i32]* %1, i64 0, i64 %117
  %119 = load i32, i32* %118, align 4, !tbaa !5
  %120 = getelementptr inbounds [300 x i32], [300 x i32]* %1, i64 0, i64 %116
  store i32 %119, i32* %120, align 4, !tbaa !5
  %121 = icmp eq i64 %117, %49
  br i1 %121, label %122, label %115, !llvm.loop !14

122:                                              ; preds = %115, %111, %44
  store i32 %47, i32* %2, align 4, !tbaa !5
  br label %125

123:                                              ; preds = %36
  %124 = add nsw i32 %39, 1
  br label %125

125:                                              ; preds = %123, %122
  %126 = phi i32 [ %47, %122 ], [ %37, %123 ]
  %127 = phi i32 [ %47, %122 ], [ %38, %123 ]
  %128 = phi i32 [ %39, %122 ], [ %124, %123 ]
  %129 = icmp slt i32 %128, %127
  br i1 %129, label %36, label %18, !llvm.loop !16

130:                                              ; preds = %24, %141
  %131 = phi i64 [ %142, %141 ], [ 0, %24 ]
  %132 = phi i32 [ %143, %141 ], [ %22, %24 ]
  %133 = add nsw i32 %132, -1
  %134 = zext i32 %133 to i64
  %135 = icmp eq i64 %131, %134
  %136 = getelementptr inbounds [300 x i32], [300 x i32]* %1, i64 0, i64 %131
  %137 = load i32, i32* %136, align 4, !tbaa !5
  %138 = call nonnull align 8 dereferenceable(8) %"class.std::basic_ostream"* @_ZNSolsEi(%"class.std::basic_ostream"* nonnull align 8 dereferenceable(8) @_ZSt4cout, i32 %137)
  br i1 %135, label %141, label %139

139:                                              ; preds = %130
  %140 = call nonnull align 8 dereferenceable(8) %"class.std::basic_ostream"* @_ZSt16__ostream_insertIcSt11char_traitsIcEERSt13basic_ostreamIT_T0_ES6_PKS3_l(%"class.std::basic_ostream"* nonnull align 8 dereferenceable(8) %138, i8* nonnull getelementptr inbounds ([2 x i8], [2 x i8]* @.str, i64 0, i64 0), i64 1)
  br label %141

141:                                              ; preds = %130, %139
  %142 = add nuw nsw i64 %131, 1
  %143 = load i32, i32* %2, align 4, !tbaa !5
  %144 = sext i32 %143 to i64
  %145 = icmp slt i64 %142, %144
  br i1 %145, label %130, label %146, !llvm.loop !17

146:                                              ; preds = %141, %0, %8, %24
  call void @llvm.lifetime.end.p0i8(i64 4, i8* nonnull %4) #7
  call void @llvm.lifetime.end.p0i8(i64 1200, i8* nonnull %3) #7
  ret i32 0
}

; Function Attrs: argmemonly mustprogress nofree nosync nounwind willreturn
declare void @llvm.lifetime.start.p0i8(i64 immarg, i8* nocapture) #4

; Function Attrs: argmemonly mustprogress nofree nounwind willreturn writeonly
declare void @llvm.memset.p0i8.i64(i8* nocapture writeonly, i8, i64, i1 immarg) #5

declare nonnull align 8 dereferenceable(16) %"class.std::basic_istream"* @_ZNSirsERi(%"class.std::basic_istream"* nonnull align 8 dereferenceable(16), i32* nonnull align 4 dereferenceable(4)) local_unnamed_addr #0

declare nonnull align 8 dereferenceable(8) %"class.std::basic_ostream"* @_ZNSolsEi(%"class.std::basic_ostream"* nonnull align 8 dereferenceable(8), i32) local_unnamed_addr #0

; Function Attrs: argmemonly mustprogress nofree nosync nounwind willreturn
declare void @llvm.lifetime.end.p0i8(i64 immarg, i8* nocapture) #4

declare nonnull align 8 dereferenceable(8) %"class.std::basic_ostream"* @_ZSt16__ostream_insertIcSt11char_traitsIcEERSt13basic_ostreamIT_T0_ES6_PKS3_l(%"class.std::basic_ostream"* nonnull align 8 dereferenceable(8), i8*, i64) local_unnamed_addr #0

; Function Attrs: sspstrong uwtable
define internal void @_GLOBAL__sub_I_1373.cpp() #6 section ".text.startup" {
  tail call void @_ZNSt8ios_base4InitC1Ev(%"class.std::ios_base::Init"* nonnull align 1 dereferenceable(1) @_ZStL8__ioinit)
  %1 = tail call i32 @__cxa_atexit(void (i8*)* bitcast (void (%"class.std::ios_base::Init"*)* @_ZNSt8ios_base4InitD1Ev to void (i8*)*), i8* getelementptr inbounds (%"class.std::ios_base::Init", %"class.std::ios_base::Init"* @_ZStL8__ioinit, i64 0, i32 0), i8* nonnull @__dso_handle) #7
  ret void
}


!llvm.module.flags = !{!0, !1, !2, !3}
!llvm.ident = !{!4}

!0 = !{i32 1, !"wchar_size", i32 4}
!1 = !{i32 7, !"PIC Level", i32 2}
!2 = !{i32 7, !"PIE Level", i32 2}
!3 = !{i32 7, !"uwtable", i32 1}
!4 = !{!"clang version 13.0.0"}
!5 = !{!6, !6, i64 0}
!6 = !{!"int", !7, i64 0}
!7 = !{!"omnipotent char", !8, i64 0}
!8 = !{!"Simple C++ TBAA"}
!9 = distinct !{!9, !10}
!10 = !{!"llvm.loop.mustprogress"}
!11 = distinct !{!11, !10}
!12 = distinct !{!12, !10, !13}
!13 = !{!"llvm.loop.isvectorized", i32 1}
!14 = distinct !{!14, !10, !15, !13}
!15 = !{!"llvm.loop.unroll.runtime.disable"}
!16 = distinct !{!16, !10}
!17 = distinct !{!17, !10}
